; Function Attrs: nounwind uwtable
define ptr @l_Lean_MonadCacheT_run___rarg___lambda__3(ptr noundef %0, ptr noundef %1, ptr noundef %2, ptr noundef %3, ptr noundef %4) #0 {
  %6 = ptrtoint ptr %4 to i64
  %7 = and i64 %6, 1
  %.not = icmp eq i64 %7, 0
  br i1 %.not, label %8, label %lean_inc.exit16

8:                                                ; preds = %5
  %.val.i = load i32, ptr %4, align 4, !tbaa !8
  %9 = icmp sgt i32 %.val.i, 0
  br i1 %9, label %10, label %12, !prof !11

10:                                               ; preds = %8
  %11 = add nuw i32 %.val.i, 1
  store i32 %11, ptr %4, align 4, !tbaa !8
  br label %lean_inc.exit16

12:                                               ; preds = %8
  %.not.i = icmp eq i32 %.val.i, 0
  br i1 %.not.i, label %lean_inc.exit16, label %13

13:                                               ; preds = %12
  tail call void @lean_inc_ref_cold(ptr noundef nonnull %4) #4
  br label %lean_inc.exit16

lean_inc.exit16:                                  ; preds = %13, %12, %10, %5
  %14 = tail call ptr @lean_apply_1(ptr noundef %0, ptr noundef %4) #4
  %15 = ptrtoint ptr %3 to i64
  %16 = and i64 %15, 1
  %.not20 = icmp eq i64 %16, 0
  br i1 %.not20, label %17, label %lean_inc.exit

17:                                               ; preds = %lean_inc.exit16
  %.val.i17 = load i32, ptr %3, align 4, !tbaa !8
  %18 = icmp sgt i32 %.val.i17, 0
  br i1 %18, label %19, label %21, !prof !11

19:                                               ; preds = %17
  %20 = add nuw i32 %.val.i17, 1
  store i32 %20, ptr %3, align 4, !tbaa !8
  br label %lean_inc.exit

21:                                               ; preds = %17
  %.not.i18 = icmp eq i32 %.val.i17, 0
  br i1 %.not.i18, label %lean_inc.exit, label %22

22:                                               ; preds = %21
  tail call void @lean_inc_ref_cold(ptr noundef nonnull %3) #4
  br label %lean_inc.exit

lean_inc.exit:                                    ; preds = %22, %21, %19, %lean_inc.exit16
  tail call void @lean_inc_heartbeat() #4
  %23 = tail call noalias ptr @mi_malloc_small(i64 noundef 56) #4
  %24 = icmp eq ptr %23, null
  br i1 %24, label %25, label %lean_alloc_closure.exit

25:                                               ; preds = %lean_inc.exit
  tail call void @lean_internal_panic_out_of_memory() #5
  unreachable

lean_alloc_closure.exit:                          ; preds = %lean_inc.exit
  %26 = getelementptr inbounds nuw i8, ptr %23, i64 4
  store i32 1, ptr %23, align 4, !tbaa !8
  store i32 -184549320, ptr %26, align 4
  %27 = getelementptr inbounds nuw i8, ptr %23, i64 8
  store ptr @l_Lean_MonadCacheT_run___rarg___lambda__2, ptr %27, align 8, !tbaa !4
  %28 = getelementptr inbounds nuw i8, ptr %23, i64 16
  store i16 5, ptr %28, align 8, !tbaa !12
  %29 = getelementptr inbounds nuw i8, ptr %23, i64 18
  store i16 4, ptr %29, align 2, !tbaa !12
  %30 = getelementptr inbounds nuw i8, ptr %23, i64 24
  store ptr %4, ptr %30, align 8, !tbaa !4
  %31 = getelementptr inbounds nuw i8, ptr %23, i64 32
  store ptr %1, ptr %31, align 8, !tbaa !4
  %32 = getelementptr inbounds nuw i8, ptr %23, i64 40
  store ptr %2, ptr %32, align 8, !tbaa !4
  %33 = getelementptr inbounds nuw i8, ptr %23, i64 48
  store ptr %3, ptr %33, align 8, !tbaa !4
  %34 = tail call ptr @lean_apply_4(ptr noundef %3, ptr noundef nonnull inttoptr (i64 1 to ptr), ptr noundef nonnull inttoptr (i64 1 to ptr), ptr noundef %14, ptr noundef nonnull %23) #4
  ret ptr %34
}